target datalayout = "e-m:e-p270:32:32-p271:32:32-p272:64:64-i64:64-i128:128-f80:128-n8:16:32:64-S128"
target triple = "x86_64-pc-linux-gnu"

%struct.dcerpc_decode_as_populate = type { ptr, ptr }

@dcerpc_uuids = global ptr null, align 8

; Function Attrs: null_pointer_is_valid sspstrong uwtable
define internal void @dcerpc_populate_list(ptr noundef %0, ptr noundef %1, ptr noundef %2) #0 {
  %4 = alloca ptr, align 8
  %5 = alloca ptr, align 8
  %6 = alloca ptr, align 8
  %7 = alloca %struct.dcerpc_decode_as_populate, align 8
  store ptr %0, ptr %4, align 8
  store ptr %1, ptr %5, align 8
  store ptr %2, ptr %6, align 8
  call void @llvm.lifetime.start.p0(i64 16, ptr %7) #19
  %8 = load ptr, ptr %5, align 8
  %9 = getelementptr inbounds nuw %struct.dcerpc_decode_as_populate, ptr %7, i32 0, i32 0
  store ptr %8, ptr %9, align 8
  %10 = load ptr, ptr %6, align 8
  %11 = getelementptr inbounds nuw %struct.dcerpc_decode_as_populate, ptr %7, i32 0, i32 1
  store ptr %10, ptr %11, align 8
  %12 = load ptr, ptr @dcerpc_uuids, align 8
  call void @g_hash_table_foreach(ptr noundef %12, ptr noundef @decode_dcerpc_add_to_list, ptr noundef %7)
  call void @llvm.lifetime.end.p0(i64 16, ptr %7) #19
  ret void
}