; Function Attrs: null_pointer_is_valid sspstrong uwtable
define internal void @dcerpc_populate_list(ptr readnone captures(none) %0, ptr noundef %1, ptr noundef %2) #0 {
  %4 = alloca %struct.dcerpc_decode_as_populate, align 8
  call void @llvm.lifetime.start.p0(i64 16, ptr nonnull %4) #19
  store ptr %1, ptr %4, align 8
  %5 = getelementptr inbounds nuw i8, ptr %4, i64 8
  store ptr %2, ptr %5, align 8
  %6 = load ptr, ptr @dcerpc_uuids, align 8
  call void @g_hash_table_foreach(ptr noundef %6, ptr noundef nonnull @decode_dcerpc_add_to_list, ptr noundef nonnull %4)
  call void @llvm.lifetime.end.p0(i64 16, ptr nonnull %4) #19
  ret void
}